Certificate:
    Data:
        Version: 3 (0x2)
        Serial Number: 13 (0xd)
        Signature Algorithm: sha512WithRSAEncryption
        Issuer: C=SG, ST=Singapore, L=Singapore, O=WUSHILIN.NET, OU=IT Team, CN=540CA
        Validity
            Not Before: Jan 17 15:21:24 2022 GMT
            Not After : Jan 12 15:21:24 2042 GMT
        Subject: C=SG, ST=Singapore, L=Singapore, O=WUSHILIN.NET, OU=VPN Service, CN=confluentmbp
        Subject Public Key Info:
            Public Key Algorithm: rsaEncryption
                RSA Public-Key: (4096 bit)
                Modulus:
                    00:c0:59:10:0d:f8:ec:19:5e:5e:ab:33:68:35:2e:
                    12:47:af:57:17:4f:37:b1:52:8e:8d:1d:f3:ce:cf:
                    5e:06:9a:ab:75:25:ee:32:37:10:0d:d1:6e:b5:77:
                    38:e3:c3:f5:20:e6:4e:59:92:40:1b:1b:bf:f2:e5:
                    e8:14:2b:02:93:e0:88:be:3a:a3:6a:d1:14:de:6c:
                    25:fa:2e:05:0e:61:cd:25:9b:99:d1:a7:e2:3c:8d:
                    2e:42:0f:91:9e:c7:52:54:f1:92:da:02:2a:dd:d5:
                    cb:30:d5:ce:87:57:6a:68:b1:d9:69:6f:22:3c:48:
                    b5:88:23:80:2d:de:14:00:78:12:07:45:15:30:61:
                    e5:42:ce:c0:1c:b9:be:9d:94:6c:6c:a7:af:dc:ca:
                    59:78:be:b4:ee:97:88:7d:b5:09:ab:e1:f5:0e:c5:
                    d4:30:3e:9c:1d:9a:64:cf:64:41:8b:c2:d0:24:c4:
                    a3:f5:17:f1:c3:05:b3:d5:d8:7f:0d:42:9b:27:77:
                    09:13:b7:1d:20:6f:e2:97:66:f5:61:98:3e:03:e0:
                    24:16:de:26:d4:2e:75:d9:5b:d0:0c:35:8a:7c:9e:
                    8d:ad:37:ef:2e:a3:c2:f5:ec:81:8f:4a:b2:8c:03:
                    87:a5:07:2c:62:16:bd:a0:59:3b:08:15:de:6e:50:
                    49:ac:b5:36:06:a8:73:77:6a:7a:51:ad:2e:e3:92:
                    14:ab:78:7f:f5:60:fc:2e:82:3a:cb:5f:96:02:c0:
                    c2:e0:7b:af:7e:28:9f:aa:9c:6f:e9:39:ab:f3:2e:
                    78:34:94:72:84:fb:e3:b5:98:e0:1d:7b:32:d2:9a:
                    d3:95:4e:2b:9c:db:a6:09:db:a9:c0:89:d1:47:e5:
                    d3:ea:8c:9c:fd:5e:4a:e9:54:e6:9a:a7:a2:f0:06:
                    68:58:be:c9:cb:60:d3:63:80:32:19:a0:fa:b9:a2:
                    34:8a:c4:e1:12:c7:ea:2a:40:8c:2f:af:9e:0e:a6:
                    05:ce:d4:a9:ba:1a:2a:12:e1:35:bd:39:36:df:29:
                    a9:fc:5d:d6:53:be:fc:1d:b4:b8:c4:a8:9a:38:a9:
                    e5:88:06:fe:b2:56:21:ca:3e:fc:72:49:a0:2b:ba:
                    c3:1a:4d:f0:cb:b8:77:f8:47:66:2a:b4:b6:c3:41:
                    3d:db:55:9c:f2:62:f9:3f:aa:83:91:ad:91:cc:00:
                    49:c6:1f:b1:be:e1:a1:5d:3b:6d:6d:39:57:18:a6:
                    48:c8:62:72:21:ab:00:d2:f1:26:2a:6d:1b:5a:3e:
                    52:f2:a2:89:5c:83:83:7c:cb:36:86:27:32:b6:f2:
                    ef:c0:9d:21:d3:04:1c:53:f2:2f:79:89:20:be:a7:
                    27:5e:d5
                Exponent: 65537 (0x10001)
        X509v3 extensions:
            X509v3 Subject Key Identifier: 
                DD:DE:57:63:AF:8C:58:DB:D3:88:52:43:FA:FC:65:7E:0E:47:E8:21
            X509v3 Authority Key Identifier: 
                keyid:BF:37:9F:A8:CE:D0:9E:F3:86:33:65:61:21:E5:79:3B:47:84:A5:A3

            X509v3 Basic Constraints: 
                CA:FALSE
            X509v3 Key Usage: 
                Digital Signature, Non Repudiation, Key Encipherment
            X509v3 Extended Key Usage: 
                TLS Web Client Authentication, E-mail Protection, TLS Web Server Authentication
            X509v3 Subject Alternative Name: 
                DNS:confluentmbp
            Netscape Comment: 
                OpenSSL Generated Certificate
    Signature Algorithm: sha512WithRSAEncryption
         77:78:d5:61:23:86:10:d0:70:5a:41:2d:dc:f2:11:f5:e6:55:
         c0:1e:c1:07:fb:b7:7a:48:85:56:d3:df:d3:1e:d9:62:f2:ea:
         03:6c:d9:4b:b3:3c:c4:ac:29:bb:f9:a7:42:74:c2:9e:bb:67:
         19:68:53:07:36:e2:8b:cb:21:68:ac:1a:66:56:98:14:de:54:
         5b:4d:b8:2f:aa:a1:9a:a4:e9:ef:b1:00:f2:4a:d4:97:fc:1a:
         c0:c9:f5:df:c2:5a:99:ee:f5:98:f4:17:81:0e:9b:77:16:e9:
         ec:81:29:1a:3c:3d:e6:c6:22:7d:2a:be:74:e8:23:67:b5:d8:
         0a:0e:61:2a:04:21:86:9e:0f:4b:42:5e:1e:23:ae:4b:0a:a8:
         a3:04:ba:23:47:2c:f0:33:f4:b9:c3:90:ae:c2:ca:7c:de:a2:
         7b:da:34:8d:b6:83:c9:31:bc:76:e1:1d:40:06:52:2c:8f:7c:
         21:1c:a6:a1:ed:9e:ba:14:c7:8f:18:71:37:32:73:de:d4:66:
         b8:90:e5:57:a4:16:87:cd:a8:d1:6b:6c:cc:77:6d:e9:5b:99:
         6c:a1:de:9b:92:f1:e7:79:5e:3e:5b:a7:d2:57:17:34:2b:70:
         b6:f8:1e:f8:5c:48:3b:62:04:a1:85:06:c0:be:5f:a7:7e:88:
         3e:3f:68:53:42:0f:97:07:8c:00:64:90:32:c3:0c:ee:3f:62:
         d8:08:26:df:f9:1e:78:d0:4c:5d:3d:ef:65:e2:9f:ef:a3:5f:
         ec:eb:3e:52:39:fa:7c:9d:bc:9e:7a:d9:80:dc:47:ad:c5:f7:
         64:92:ac:a7:da:09:06:25:75:57:45:f3:39:82:9d:a4:d7:e6:
         20:11:a2:ff:a5:74:98:a1:d5:aa:f3:c4:1f:31:7c:1b:f9:23:
         fa:38:7d:d3:ee:37:96:50:dc:d4:9f:39:36:03:c9:ff:79:24:
         91:a2:6b:bf:c3:67:eb:7a:e4:33:ee:dc:c2:40:1e:73:f3:e4:
         ca:83:5b:d6:4f:5d:df:ec:92:76:8a:9c:0c:29:7e:1d:f5:5a:
         52:f9:43:9a:60:35:56:a7:85:3d:5b:00:87:39:7c:a8:71:95:
         0f:ac:28:70:75:75:5a:0d:f0:67:9a:0d:4e:43:b5:f5:9c:bd:
         cc:75:34:fe:be:9e:8c:6c:64:b5:4f:20:0c:9a:b7:f9:f6:fb:
         d3:b7:5e:c5:0e:d1:f0:02:9c:3a:72:fe:86:43:ff:8a:8a:c5:
         11:3e:57:d4:b1:96:af:d5:d5:9a:ed:a1:50:0a:52:07:bc:b0:
         d7:41:6e:1f:c6:0a:87:48:35:d2:80:36:08:16:31:16:66:17:
         03:e8:ac:f2:2e:ca:97:29:bb:27:55:6b:47:65:53:c2:a4:dd:
         bb:6d:6e:f3:8a:d8:bb:cb:28:83:81:34:20:c5:a6:f0:bc:06:
         e2:e5:4d:4d:7a:0c:a6:84:66:8a:fd:ff:7f:55:83:67:ef:12:
         d5:6d:2b:9c:34:bf:09:c1:ef:b6:81:99:89:8a:26:ad:56:bc:
         94:be:cb:48:85:e6:a4:68:b1:e0:29:71:de:02:77:4d:7a:4b:
         d6:d0:cf:b0:8f:62:9b:4e:18:b8:7c:e2:d5:1f:92:d4:c7:71:
         7a:ab:ae:b5:69:44:b7:a1:6e:0b:02:98:9e:c3:e1:7e:58:42:
         43:7a:cc:b8:a6:ba:78:03:cb:37:76:43:45:0b:6d:c0:95:e7:
         8c:21:c7:fe:88:9b:92:37:f0:4f:80:34:25:0c:39:04:2e:31:
         d5:cd:ad:dc:41:c0:40:71:33:19:db:09:fd:4c:c4:13:d3:e5:
         01:23:1b:73:a3:c0:37:91:ce:3a:31:90:63:7a:e7:09:58:02:
         87:4c:5b:76:65:8a:cb:9b:ad:0e:69:1c:87:0d:64:bb:f6:e0:
         b0:99:9c:8e:85:d6:44:e5:35:5f:94:5c:1f:5b:af:2d:3a:84:
         11:78:0d:a8:72:a4:6d:21:57:83:81:dd:a1:b3:86:c7:9b:79:
         9a:dc:ea:ed:7b:92:14:6b:0e:d5:d5:20:90:12:8e:1a:92:cf:
         d5:74:c9:ee:c6:89:20:e7:93:47:63:fa:d2:d1:28:3a:19:d9:
         39:9e:a7:17:dc:69:b9:a6:4e:e9:63:a4:83:ff:de:d1:1c:4c:
         70:68:77:fb:0f:82:66:0b:51:a8:39:8e:c8:29:7b:ad:8e:3d:
         b7:c7:ef:00:3c:31:7b:87:d8:c6:07:f3:33:3f:5e:d7:79:0e:
         c5:c4:e3:0e:bd:bb:68:bf:50:53:43:50:22:fd:5e:c7:7f:8f:
         62:26:6a:45:4b:e1:b7:50:27:bc:6e:5e:0b:52:a0:56:d5:02:
         9a:2e:01:24:09:7f:43:b6:3f:9e:81:ea:8c:19:56:34:ad:5e:
         94:83:07:fa:9e:c2:b0:af:ab:dd:bc:8e:5b:c8:49:80:21:48:
         98:96:7b:fe:b3:a5:fd:77:d2:9d:3d:5c:5f:47:3f:cc:48:ec:
         16:ce:02:1f:2c:7d:68:24:f3:70:cc:38:2c:c5:b8:4f:c1:f1:
         70:48:2b:16:e8:05:6d:ff:38:29:56:9f:59:3e:0c:34:9f:ef:
         e5:81:e1:95:5e:62:9a:bf:b5:bd:42:34:0d:4a:36:6d:db:e1:
         69:70:83:8d:f1:5b:1f:7f:8b:68:55:34:cc:e2:bb:e7:c4:90:
         35:8a:7a:0e:bf:53:3a:4d:26:0b:76:f5:63:e7:08:fb
-----BEGIN CERTIFICATE-----
MIIILjCCBBagAwIBAgIBDTANBgkqhkiG9w0BAQ0FADBuMQswCQYDVQQGEwJTRzES
MBAGA1UECAwJU2luZ2Fwb3JlMRIwEAYDVQQHDAlTaW5nYXBvcmUxFTATBgNVBAoM
DFdVU0hJTElOLk5FVDEQMA4GA1UECwwHSVQgVGVhbTEOMAwGA1UEAwwFNTQwQ0Ew
HhcNMjIwMTE3MTUyMTI0WhcNNDIwMTEyMTUyMTI0WjB5MQswCQYDVQQGEwJTRzES
MBAGA1UECAwJU2luZ2Fwb3JlMRIwEAYDVQQHDAlTaW5nYXBvcmUxFTATBgNVBAoM
DFdVU0hJTElOLk5FVDEUMBIGA1UECwwLVlBOIFNlcnZpY2UxFTATBgNVBAMMDGNv
bmZsdWVudG1icDCCAiIwDQYJKoZIhvcNAQEBBQADggIPADCCAgoCggIBAMBZEA34
7BleXqszaDUuEkevVxdPN7FSjo0d887PXgaaq3Ul7jI3EA3RbrV3OOPD9SDmTlmS
QBsbv/Ll6BQrApPgiL46o2rRFN5sJfouBQ5hzSWbmdGn4jyNLkIPkZ7HUlTxktoC
Kt3VyzDVzodXamix2WlvIjxItYgjgC3eFAB4EgdFFTBh5ULOwBy5vp2UbGynr9zK
WXi+tO6XiH21Cavh9Q7F1DA+nB2aZM9kQYvC0CTEo/UX8cMFs9XYfw1Cmyd3CRO3
HSBv4pdm9WGYPgPgJBbeJtQuddlb0Aw1inyeja037y6jwvXsgY9KsowDh6UHLGIW
vaBZOwgV3m5QSay1Ngaoc3dqelGtLuOSFKt4f/Vg/C6COstflgLAwuB7r34on6qc
b+k5q/MueDSUcoT747WY4B17MtKa05VOK5zbpgnbqcCJ0Ufl0+qMnP1eSulU5pqn
ovAGaFi+yctg02OAMhmg+rmiNIrE4RLH6ipAjC+vng6mBc7UqboaKhLhNb05Nt8p
qfxd1lO+/B20uMSomjip5YgG/rJWIco+/HJJoCu6wxpN8Mu4d/hHZiq0tsNBPdtV
nPJi+T+qg5GtkcwAScYfsb7hoV07bW05VximSMhiciGrANLxJiptG1o+UvKiiVyD
g3zLNoYnMrby78CdIdMEHFPyL3mJIL6nJ17VAgMBAAGjgcswgcgwHQYDVR0OBBYE
FN3eV2OvjFjb04hSQ/r8ZX4OR+ghMB8GA1UdIwQYMBaAFL83n6jO0J7zhjNlYSHl
eTtHhKWjMAkGA1UdEwQCMAAwCwYDVR0PBAQDAgXgMCcGA1UdJQQgMB4GCCsGAQUF
BwMCBggrBgEFBQcDBAYIKwYBBQUHAwEwFwYDVR0RBBAwDoIMY29uZmx1ZW50bWJw
MCwGCWCGSAGG+EIBDQQfFh1PcGVuU1NMIEdlbmVyYXRlZCBDZXJ0aWZpY2F0ZTAN
BgkqhkiG9w0BAQ0FAAOCBAEAd3jVYSOGENBwWkEt3PIR9eZVwB7BB/u3ekiFVtPf
0x7ZYvLqA2zZS7M8xKwpu/mnQnTCnrtnGWhTBzbii8shaKwaZlaYFN5UW024L6qh
mqTp77EA8krUl/wawMn138Jame71mPQXgQ6bdxbp7IEpGjw95sYifSq+dOgjZ7XY
Cg5hKgQhhp4PS0JeHiOuSwqoowS6I0cs8DP0ucOQrsLKfN6ie9o0jbaDyTG8duEd
QAZSLI98IRymoe2euhTHjxhxNzJz3tRmuJDlV6QWh82o0WtszHdt6VuZbKHem5Lx
53lePlun0lcXNCtwtvge+FxIO2IEoYUGwL5fp36IPj9oU0IPlweMAGSQMsMM7j9i
2Agm3/keeNBMXT3vZeKf76Nf7Os+Ujn6fJ28nnrZgNxHrcX3ZJKsp9oJBiV1V0Xz
OYKdpNfmIBGi/6V0mKHVqvPEHzF8G/kj+jh90+43llDc1J85NgPJ/3kkkaJrv8Nn
63rkM+7cwkAec/PkyoNb1k9d3+ySdoqcDCl+HfVaUvlDmmA1VqeFPVsAhzl8qHGV
D6wocHV1Wg3wZ5oNTkO19Zy9zHU0/r6ejGxktU8gDJq3+fb707dexQ7R8AKcOnL+
hkP/iorFET5X1LGWr9XVmu2hUApSB7yw10FuH8YKh0g10oA2CBYxFmYXA+is8i7K
lym7J1VrR2VTwqTdu21u84rYu8sog4E0IMWm8LwG4uVNTXoMpoRmiv3/f1WDZ+8S
1W0rnDS/CcHvtoGZiYomrVa8lL7LSIXmpGix4Clx3gJ3TXpL1tDPsI9im04YuHzi
1R+S1MdxequutWlEt6FuCwKYnsPhflhCQ3rMuKa6eAPLN3ZDRQttwJXnjCHH/oib
kjfwT4A0JQw5BC4x1c2t3EHAQHEzGdsJ/UzEE9PlASMbc6PAN5HOOjGQY3rnCVgC
h0xbdmWKy5utDmkchw1ku/bgsJmcjoXWROU1X5RcH1uvLTqEEXgNqHKkbSFXg4Hd
obOGx5t5mtzq7XuSFGsO1dUgkBKOGpLP1XTJ7saJIOeTR2P60tEoOhnZOZ6nF9xp
uaZO6WOkg//e0RxMcGh3+w+CZgtRqDmOyCl7rY49t8fvADwxe4fYxgfzMz9e13kO
xcTjDr27aL9QU0NQIv1ex3+PYiZqRUvht1AnvG5eC1KgVtUCmi4BJAl/Q7Y/noHq
jBlWNK1elIMH+p7CsK+r3byOW8hJgCFImJZ7/rOl/XfSnT1cX0c/zEjsFs4CHyx9
aCTzcMw4LMW4T8HxcEgrFugFbf84KVafWT4MNJ/v5YHhlV5imr+1vUI0DUo2bdvh
aXCDjfFbH3+LaFU0zOK758SQNYp6Dr9TOk0mC3b1Y+cI+w==
-----END CERTIFICATE-----
