Certificate:
    Data:
        Version: 3 (0x2)
        Serial Number: 36 (0x24)
        Signature Algorithm: sha512WithRSAEncryption
        Issuer: C=SG, ST=Singapore, L=Singapore, O=WUSHILIN.NET, OU=IT Team, CN=540CA
        Validity
            Not Before: May 27 03:19:23 2023 GMT
            Not After : May 22 03:19:23 2043 GMT
        Subject: C=SG, ST=Singapore, L=Singapore, O=HOME, OU=HOME, CN=any_local
        Subject Public Key Info:
            Public Key Algorithm: rsaEncryption
                Public-Key: (4096 bit)
                Modulus:
                    00:aa:bc:c7:10:3b:57:52:46:53:31:43:14:83:53:
                    81:4a:74:d7:11:7a:6b:0c:bf:9f:4b:ff:99:bd:2d:
                    a7:fd:9d:50:0c:38:99:17:8e:87:52:9e:dc:a8:38:
                    e6:d5:b2:5f:35:b3:8b:5f:91:1e:ba:0b:59:a5:87:
                    73:74:d9:91:c3:d6:27:f1:29:88:25:1b:87:3b:71:
                    8e:26:14:7a:d5:87:4c:81:ef:3a:3d:d4:b8:2e:8d:
                    e8:bf:30:6c:f5:bd:fd:75:f5:fa:63:e3:37:d7:f6:
                    e7:d0:69:53:fc:63:7b:d9:bf:ba:98:cc:b4:4a:10:
                    60:c9:9d:fa:b7:2b:42:59:89:33:f2:02:17:f3:da:
                    c4:e1:c0:3e:26:a6:00:0d:d6:ea:80:5a:51:8d:55:
                    06:90:a1:92:c0:3e:4c:5d:27:93:2c:eb:7e:4b:b2:
                    8f:2c:09:b9:1f:c9:fa:eb:9d:e5:b3:05:4e:63:fe:
                    b0:d1:24:6a:09:41:c6:9a:c5:e6:ac:41:b1:a0:c7:
                    a4:1f:a6:8b:22:23:b5:f2:1b:ad:6f:a9:63:09:18:
                    77:26:0b:e8:c2:80:d1:4b:37:18:7d:bd:7c:4e:b7:
                    0c:a5:a9:18:0e:1e:87:6c:6a:98:de:6a:d1:1b:76:
                    5c:fd:ba:54:e1:50:6d:fd:9a:65:1a:43:4e:19:92:
                    59:ed:b7:db:d3:72:d5:fd:fa:bb:52:b0:02:40:16:
                    d6:3c:07:fa:60:a0:8b:75:d7:6b:40:2a:e2:d6:5e:
                    b3:c0:15:5d:f4:8a:8b:ae:3c:7b:d8:e1:36:91:b4:
                    67:6d:a9:ff:33:56:42:98:81:a4:e3:a4:55:d5:01:
                    fb:38:78:ff:1c:fb:38:8f:62:71:a4:cd:20:ae:64:
                    eb:9f:91:c7:80:f5:7f:27:71:a2:1c:7e:78:8e:81:
                    a3:4a:69:a5:dc:85:d2:f5:38:de:c8:ca:49:59:07:
                    0d:f9:ac:17:6c:e4:2a:c8:73:ef:72:79:3c:bb:1a:
                    8e:84:64:b6:a3:fc:05:d7:82:91:bc:de:48:d5:76:
                    0f:5b:fb:12:f8:88:24:2b:07:d8:23:6d:b8:7c:f7:
                    b8:fc:c1:72:07:f3:60:32:75:72:d2:c7:2b:fb:62:
                    ae:94:fb:50:2e:56:fb:f3:94:3d:c9:6b:f9:1a:4a:
                    67:2a:41:10:38:d6:15:1f:f3:3f:57:e4:26:36:a8:
                    eb:b3:c4:07:fe:bb:c4:b2:8c:b9:44:1d:19:e5:23:
                    08:48:77:cb:6f:4d:1d:64:d3:3c:87:8b:26:32:84:
                    5b:38:ce:a2:3b:52:d8:fa:f1:5f:04:76:ed:4c:d6:
                    84:82:86:ea:1f:0d:48:98:d3:5e:7a:36:b9:ef:d9:
                    7b:43:73
                Exponent: 65537 (0x10001)
        X509v3 extensions:
            X509v3 Subject Key Identifier: 
                32:30:AC:53:FE:7C:C9:D4:DD:51:17:72:48:E8:C8:87:3E:B7:F7:F7
            X509v3 Authority Key Identifier: 
                BF:37:9F:A8:CE:D0:9E:F3:86:33:65:61:21:E5:79:3B:47:84:A5:A3
            X509v3 Basic Constraints: 
                CA:FALSE
            X509v3 Key Usage: 
                Digital Signature, Non Repudiation, Key Encipherment
            X509v3 Extended Key Usage: 
                TLS Web Client Authentication, E-mail Protection, TLS Web Server Authentication
            X509v3 Subject Alternative Name: 
                DNS:any_local, DNS:*.local, IP Address:192.168.44.105, IP Address:192.168.44.172
            Netscape Comment: 
                OpenSSL Generated Certificate
    Signature Algorithm: sha512WithRSAEncryption
    Signature Value:
        43:c9:95:0a:c5:5b:ee:d5:6e:aa:fa:f9:fd:85:f7:25:63:1d:
        9d:f9:39:1b:92:2f:ab:f8:17:10:8e:bc:63:e9:5c:d1:06:e3:
        44:8a:23:ef:f7:42:32:6e:b8:b8:6a:fa:1f:95:4e:ae:40:bf:
        3b:1d:98:67:7b:a5:83:65:9f:d2:c8:77:4b:3c:c3:81:f0:0c:
        87:e3:04:4b:be:b5:d2:ba:fc:59:95:88:3f:ef:33:92:e8:07:
        a9:f2:74:e0:1b:45:aa:9e:55:76:ae:34:4b:d9:f4:06:8a:1e:
        7f:4a:8b:d6:7e:41:7a:a5:62:ed:04:4b:37:6b:b2:cd:51:b9:
        7b:1a:c4:af:b1:f6:3b:2d:dd:ac:6d:e3:bb:e8:c3:d0:83:07:
        df:00:d7:a4:d2:2f:27:ab:5d:fc:48:7a:4e:08:25:8e:19:5a:
        d1:67:3f:e4:24:60:a4:0b:eb:2f:9b:f2:e8:68:71:22:bf:96:
        71:ac:f6:8e:6c:14:1d:82:24:b5:51:34:10:62:88:44:a9:0e:
        05:fe:e9:83:3b:43:1a:e7:51:01:dc:1f:7f:25:b2:fc:19:b6:
        ce:ec:a1:a3:84:72:72:c2:d8:7a:67:d8:24:fb:d8:99:8b:a3:
        a3:c4:72:51:ae:37:d8:24:67:b4:b1:d8:6a:8f:76:f4:86:71:
        60:8d:79:78:8e:9b:20:2a:e2:20:36:5a:f1:f4:e4:d9:1f:87:
        0a:a7:ba:ee:34:03:02:35:2b:d6:13:85:b0:78:3e:ae:e7:08:
        82:65:81:c7:46:42:a7:ec:4b:0c:24:9b:28:bc:dd:bc:5f:e7:
        fd:65:6e:2e:f6:ab:5b:0e:fc:e4:d5:aa:a9:5f:ac:16:57:93:
        87:4c:17:7d:ba:be:60:8f:1c:15:bc:93:e8:77:ed:75:d8:43:
        30:54:80:d2:84:c6:e8:2a:43:ff:85:eb:7e:46:86:98:30:6b:
        7a:3a:64:aa:6f:52:49:e7:69:11:4f:7b:25:ff:1f:ad:64:dd:
        d0:93:fb:0f:b4:44:f2:52:49:9a:0b:4c:ad:89:3e:a0:8a:a8:
        80:71:7c:06:11:ba:77:56:d1:ec:75:59:80:e3:22:57:3b:05:
        d2:cb:01:39:c5:fa:49:25:26:94:fc:16:25:a7:22:dc:b4:aa:
        2c:f0:f5:0b:42:a1:e4:18:5d:b6:b0:f6:d5:ea:0f:50:56:66:
        e0:4c:ff:58:70:a3:3d:87:1f:a8:ad:4d:3e:5b:48:b9:ad:49:
        f9:53:11:05:42:73:d1:34:9d:0d:cf:ec:59:da:f3:3a:5d:09:
        f1:64:1d:8e:31:6e:cb:fc:b9:1b:e1:e4:10:ef:0f:d0:21:2b:
        7b:79:f4:ee:45:ac:d6:68:fa:4d:1e:b6:2e:2f:6e:40:55:7d:
        3a:35:55:2e:d8:4d:b7:df:fe:de:83:0b:5f:be:5a:b2:03:08:
        5a:b5:1a:7b:64:6c:69:39:3a:d9:89:0b:f7:8f:9d:51:91:46:
        64:b0:db:3b:53:9b:3f:0f:b7:55:68:77:73:d3:a3:fa:07:4e:
        84:05:08:4c:94:a8:ab:35:d7:77:dc:fb:f0:cb:b8:7a:8b:4b:
        2d:5c:ee:90:65:6a:b7:02:54:d2:49:d6:21:11:a1:db:c4:d4:
        03:43:8c:28:a4:57:23:c7:fc:a4:91:98:e5:2c:68:07:f6:21:
        f6:82:60:65:8e:f8:0e:b5:04:30:97:c8:6c:bf:b4:c5:7a:8b:
        09:c3:c9:59:66:d1:a7:81:63:1f:ac:1b:e3:8e:62:49:50:33:
        87:f4:68:51:91:3c:a8:40:1f:d6:1c:a7:f0:c5:fd:09:38:1f:
        03:7f:dd:5b:c3:1a:c1:2f:34:00:43:cb:aa:70:d0:0d:ba:7f:
        1f:c1:d5:2b:ce:96:77:48:ff:4a:95:b7:0b:2e:a3:26:77:17:
        91:9a:28:08:2e:04:1c:f3:39:b0:35:1d:49:7e:20:24:b4:22:
        7f:31:d4:1a:6f:58:2e:d7:b2:74:30:6c:3a:e3:9f:7d:2c:ab:
        f2:e5:b2:b1:94:3d:bf:b4:c5:51:61:8d:bc:29:8c:4d:34:f8:
        54:47:5f:d7:09:fb:8c:4b:7b:68:46:9a:88:17:d3:f5:0c:33:
        88:bc:30:1d:06:96:8e:1e:a9:98:14:a9:be:38:6a:3b:3e:8c:
        7f:9f:ed:c8:85:18:e4:38:f4:a6:a6:b1:4a:bd:15:f9:d0:db:
        b1:e0:7d:5b:38:54:15:91:16:a8:c5:29:b4:d6:2c:02:33:ff:
        13:63:48:a3:da:68:f4:ca:8c:fb:bc:9b:26:2c:9e:d0:0d:39:
        ad:bc:b5:02:cf:24:17:2b:f8:74:06:e8:a0:af:8a:b6:df:44:
        c0:a3:26:a4:6e:ce:23:8f:bc:21:41:78:83:33:7e:82:4d:e8:
        a4:79:3a:a3:00:0c:fc:2e:70:cc:4e:f3:24:14:04:a8:c5:fc:
        3a:50:37:33:2e:23:be:40:08:a8:19:07:58:60:83:1b:0c:c8:
        38:7e:ab:15:a5:dd:80:f0:1e:83:09:f8:42:0e:91:4e:57:8b:
        2e:54:10:47:c8:33:f2:b2:e6:68:9f:9d:7d:ed:18:6a:61:46:
        c0:5a:4d:0a:74:8f:92:2e:3d:16:8e:6f:90:57:6a:05:92:84:
        bd:60:82:1c:37:73:ad:e2:66:a5:83:5a:fa:60:2c:12:55:6c:
        a5:33:9d:47:4a:35:1d:f1:f4:d5:5c:60:b8:0c:94:14
-----BEGIN CERTIFICATE-----
MIIILjCCBBagAwIBAgIBJDANBgkqhkiG9w0BAQ0FADBuMQswCQYDVQQGEwJTRzES
MBAGA1UECAwJU2luZ2Fwb3JlMRIwEAYDVQQHDAlTaW5nYXBvcmUxFTATBgNVBAoM
DFdVU0hJTElOLk5FVDEQMA4GA1UECwwHSVQgVGVhbTEOMAwGA1UEAwwFNTQwQ0Ew
HhcNMjMwNTI3MDMxOTIzWhcNNDMwNTIyMDMxOTIzWjBnMQswCQYDVQQGEwJTRzES
MBAGA1UECAwJU2luZ2Fwb3JlMRIwEAYDVQQHDAlTaW5nYXBvcmUxDTALBgNVBAoM
BEhPTUUxDTALBgNVBAsMBEhPTUUxEjAQBgNVBAMMCWFueV9sb2NhbDCCAiIwDQYJ
KoZIhvcNAQEBBQADggIPADCCAgoCggIBAKq8xxA7V1JGUzFDFINTgUp01xF6awy/
n0v/mb0tp/2dUAw4mReOh1Ke3Kg45tWyXzWzi1+RHroLWaWHc3TZkcPWJ/EpiCUb
hztxjiYUetWHTIHvOj3UuC6N6L8wbPW9/XX1+mPjN9f259BpU/xje9m/upjMtEoQ
YMmd+rcrQlmJM/ICF/PaxOHAPiamAA3W6oBaUY1VBpChksA+TF0nkyzrfkuyjywJ
uR/J+uud5bMFTmP+sNEkaglBxprF5qxBsaDHpB+miyIjtfIbrW+pYwkYdyYL6MKA
0Us3GH29fE63DKWpGA4eh2xqmN5q0Rt2XP26VOFQbf2aZRpDThmSWe2329Ny1f36
u1KwAkAW1jwH+mCgi3XXa0Aq4tZes8AVXfSKi648e9jhNpG0Z22p/zNWQpiBpOOk
VdUB+zh4/xz7OI9icaTNIK5k65+Rx4D1fydxohx+eI6Bo0pppdyF0vU43sjKSVkH
DfmsF2zkKshz73J5PLsajoRktqP8BdeCkbzeSNV2D1v7EviIJCsH2CNtuHz3uPzB
cgfzYDJ1ctLHK/tirpT7UC5W+/OUPclr+RpKZypBEDjWFR/zP1fkJjao67PEB/67
xLKMuUQdGeUjCEh3y29NHWTTPIeLJjKEWzjOojtS2PrxXwR27UzWhIKG6h8NSJjT
Xno2ue/Ze0NzAgMBAAGjgd0wgdowHQYDVR0OBBYEFDIwrFP+fMnU3VEXckjoyIc+
t/f3MB8GA1UdIwQYMBaAFL83n6jO0J7zhjNlYSHleTtHhKWjMAkGA1UdEwQCMAAw
CwYDVR0PBAQDAgXgMCcGA1UdJQQgMB4GCCsGAQUFBwMCBggrBgEFBQcDBAYIKwYB
BQUHAwEwKQYDVR0RBCIwIIIJYW55X2xvY2FsggcqLmxvY2FshwTAqCxphwTAqCys
MCwGCWCGSAGG+EIBDQQfFh1PcGVuU1NMIEdlbmVyYXRlZCBDZXJ0aWZpY2F0ZTAN
BgkqhkiG9w0BAQ0FAAOCBAEAQ8mVCsVb7tVuqvr5/YX3JWMdnfk5G5Ivq/gXEI68
Y+lc0QbjRIoj7/dCMm64uGr6H5VOrkC/Ox2YZ3ulg2Wf0sh3SzzDgfAMh+MES761
0rr8WZWIP+8zkugHqfJ04BtFqp5Vdq40S9n0Booef0qL1n5BeqVi7QRLN2uyzVG5
exrEr7H2Oy3drG3ju+jD0IMH3wDXpNIvJ6td/Eh6Tggljhla0Wc/5CRgpAvrL5vy
6GhxIr+Wcaz2jmwUHYIktVE0EGKIRKkOBf7pgztDGudRAdwffyWy/Bm2zuyho4Ry
csLYemfYJPvYmYujo8RyUa432CRntLHYao929IZxYI15eI6bICriIDZa8fTk2R+H
Cqe67jQDAjUr1hOFsHg+rucIgmWBx0ZCp+xLDCSbKLzdvF/n/WVuLvarWw785NWq
qV+sFleTh0wXfbq+YI8cFbyT6HftddhDMFSA0oTG6CpD/4XrfkaGmDBrejpkqm9S
SedpEU97Jf8frWTd0JP7D7RE8lJJmgtMrYk+oIqogHF8BhG6d1bR7HVZgOMiVzsF
0ssBOcX6SSUmlPwWJaci3LSqLPD1C0Kh5BhdtrD21eoPUFZm4Ez/WHCjPYcfqK1N
PltIua1J+VMRBUJz0TSdDc/sWdrzOl0J8WQdjjFuy/y5G+HkEO8P0CEre3n07kWs
1mj6TR62Li9uQFV9OjVVLthNt9/+3oMLX75asgMIWrUae2RsaTk62YkL94+dUZFG
ZLDbO1ObPw+3VWh3c9Oj+gdOhAUITJSoqzXXd9z78Mu4eotLLVzukGVqtwJU0knW
IRGh28TUA0OMKKRXI8f8pJGY5SxoB/Yh9oJgZY74DrUEMJfIbL+0xXqLCcPJWWbR
p4FjH6wb445iSVAzh/RoUZE8qEAf1hyn8MX9CTgfA3/dW8MawS80AEPLqnDQDbp/
H8HVK86Wd0j/SpW3Cy6jJncXkZooCC4EHPM5sDUdSX4gJLQifzHUGm9YLteydDBs
OuOffSyr8uWysZQ9v7TFUWGNvCmMTTT4VEdf1wn7jEt7aEaaiBfT9QwziLwwHQaW
jh6pmBSpvjhqOz6Mf5/tyIUY5Dj0pqaxSr0V+dDbseB9WzhUFZEWqMUptNYsAjP/
E2NIo9po9MqM+7ybJiye0A05rby1As8kFyv4dAbooK+Ktt9EwKMmpG7OI4+8IUF4
gzN+gk3opHk6owAM/C5wzE7zJBQEqMX8OlA3My4jvkAIqBkHWGCDGwzIOH6rFaXd
gPAegwn4Qg6RTleLLlQQR8gz8rLmaJ+dfe0YamFGwFpNCnSPki49Fo5vkFdqBZKE
vWCCHDdzreJmpYNa+mAsElVspTOdR0o1HfH01VxguAyUFA==
-----END CERTIFICATE-----
